target datalayout = "e-m:e-p270:32:32-p271:32:32-p272:64:64-i64:64-i128:128-f80:128-n8:16:32:64-S128"
target triple = "x86_64-pc-linux-gnu"

; Function Attrs: nounwind uwtable
define internal i32 @dvb_encode_rle8(ptr noundef %0, i32 noundef %1, ptr noundef %2, i32 noundef %3, i32 noundef %4, i32 noundef %5) #0 {
  %7 = alloca i32, align 4
  %8 = alloca ptr, align 8
  %9 = alloca i32, align 4
  %10 = alloca ptr, align 8
  %11 = alloca i32, align 4
  %12 = alloca i32, align 4
  %13 = alloca i32, align 4
  %14 = alloca ptr, align 8
  %15 = alloca ptr, align 8
  %16 = alloca i32, align 4
  %17 = alloca i32, align 4
  %18 = alloca i32, align 4
  %19 = alloca i32, align 4
  %20 = alloca i32, align 4
  %21 = alloca i32, align 4
  store ptr %0, ptr %8, align 8, !tbaa !60
  store i32 %1, ptr %9, align 4, !tbaa !11
  store ptr %2, ptr %10, align 8, !tbaa !9
  store i32 %3, ptr %11, align 4, !tbaa !11
  store i32 %4, ptr %12, align 4, !tbaa !11
  store i32 %5, ptr %13, align 4, !tbaa !11
  call void @llvm.lifetime.start.p0(i64 8, ptr %14) #4
  call void @llvm.lifetime.start.p0(i64 8, ptr %15) #4
  call void @llvm.lifetime.start.p0(i64 4, ptr %16) #4
  call void @llvm.lifetime.start.p0(i64 4, ptr %17) #4
  call void @llvm.lifetime.start.p0(i64 4, ptr %18) #4
  call void @llvm.lifetime.start.p0(i64 4, ptr %19) #4
  call void @llvm.lifetime.start.p0(i64 4, ptr %20) #4
  %22 = load ptr, ptr %8, align 8, !tbaa !60
  %23 = load ptr, ptr %22, align 8, !tbaa !9
  store ptr %23, ptr %14, align 8, !tbaa !9
  store i32 0, ptr %17, align 4, !tbaa !11
  br label %24

24:                                               ; preds = %166, %6
  %25 = load i32, ptr %17, align 4, !tbaa !11
  %26 = load i32, ptr %13, align 4, !tbaa !11
  %27 = icmp slt i32 %25, %26
  br i1 %27, label %28, label %169

28:                                               ; preds = %24
  %29 = load i32, ptr %9, align 4, !tbaa !11
  %30 = mul nsw i32 %29, 8
  %31 = load i32, ptr %12, align 4, !tbaa !11
  %32 = mul nsw i32 %31, 12
  %33 = add nsw i32 %32, 24
  %34 = icmp slt i32 %30, %33
  br i1 %34, label %35, label %36

35:                                               ; preds = %28
  store i32 -1397118274, ptr %7, align 4
  store i32 1, ptr %21, align 4
  br label %180

36:                                               ; preds = %28
  %37 = load ptr, ptr %14, align 8, !tbaa !9
  store ptr %37, ptr %15, align 8, !tbaa !9
  %38 = load ptr, ptr %14, align 8, !tbaa !9
  %39 = getelementptr inbounds nuw i8, ptr %38, i32 1
  store ptr %39, ptr %14, align 8, !tbaa !9
  store i8 18, ptr %38, align 1, !tbaa !42
  store i32 0, ptr %16, align 4, !tbaa !11
  br label %40

40:                                               ; preds = %144, %36
  %41 = load i32, ptr %16, align 4, !tbaa !11
  %42 = load i32, ptr %12, align 4, !tbaa !11
  %43 = icmp slt i32 %41, %42
  br i1 %43, label %44, label %148

44:                                               ; preds = %40
  %45 = load i32, ptr %16, align 4, !tbaa !11
  store i32 %45, ptr %19, align 4, !tbaa !11
  %46 = load ptr, ptr %10, align 8, !tbaa !9
  %47 = load i32, ptr %19, align 4, !tbaa !11
  %48 = add nsw i32 %47, 1
  store i32 %48, ptr %19, align 4, !tbaa !11
  %49 = sext i32 %47 to i64
  %50 = getelementptr inbounds i8, ptr %46, i64 %49
  %51 = load i8, ptr %50, align 1, !tbaa !42
  %52 = zext i8 %51 to i32
  store i32 %52, ptr %20, align 4, !tbaa !11
  br label %53

53:                                               ; preds = %68, %44
  %54 = load i32, ptr %19, align 4, !tbaa !11
  %55 = load i32, ptr %12, align 4, !tbaa !11
  %56 = icmp slt i32 %54, %55
  br i1 %56, label %57, label %66

57:                                               ; preds = %53
  %58 = load ptr, ptr %10, align 8, !tbaa !9
  %59 = load i32, ptr %19, align 4, !tbaa !11
  %60 = sext i32 %59 to i64
  %61 = getelementptr inbounds i8, ptr %58, i64 %60
  %62 = load i8, ptr %61, align 1, !tbaa !42
  %63 = zext i8 %62 to i32
  %64 = load i32, ptr %20, align 4, !tbaa !11
  %65 = icmp eq i32 %63, %64
  br label %66

66:                                               ; preds = %57, %53
  %67 = phi i1 [ false, %53 ], [ %65, %57 ]
  br i1 %67, label %68, label %71

68:                                               ; preds = %66
  %69 = load i32, ptr %19, align 4, !tbaa !11
  %70 = add nsw i32 %69, 1
  store i32 %70, ptr %19, align 4, !tbaa !11
  br label %53, !llvm.loop !68

71:                                               ; preds = %66
  %72 = load i32, ptr %19, align 4, !tbaa !11
  %73 = load i32, ptr %16, align 4, !tbaa !11
  %74 = sub nsw i32 %72, %73
  store i32 %74, ptr %18, align 4, !tbaa !11
  %75 = load i32, ptr %18, align 4, !tbaa !11
  %76 = icmp eq i32 %75, 1
  br i1 %76, label %77, label %85

77:                                               ; preds = %71
  %78 = load i32, ptr %20, align 4, !tbaa !11
  %79 = icmp ne i32 %78, 0
  br i1 %79, label %80, label %85

80:                                               ; preds = %77
  %81 = load i32, ptr %20, align 4, !tbaa !11
  %82 = trunc i32 %81 to i8
  %83 = load ptr, ptr %14, align 8, !tbaa !9
  %84 = getelementptr inbounds nuw i8, ptr %83, i32 1
  store ptr %84, ptr %14, align 8, !tbaa !9
  store i8 %82, ptr %83, align 1, !tbaa !42
  br label %144

85:                                               ; preds = %77, %71
  %86 = load i32, ptr %20, align 4, !tbaa !11
  %87 = icmp eq i32 %86, 0
  br i1 %87, label %88, label %102

88:                                               ; preds = %85
  %89 = load i32, ptr %18, align 4, !tbaa !11
  %90 = icmp sgt i32 %89, 127
  br i1 %90, label %91, label %92

91:                                               ; preds = %88
  br label %94

92:                                               ; preds = %88
  %93 = load i32, ptr %18, align 4, !tbaa !11
  br label %94

94:                                               ; preds = %92, %91
  %95 = phi i32 [ 127, %91 ], [ %93, %92 ]
  store i32 %95, ptr %18, align 4, !tbaa !11
  %96 = load ptr, ptr %14, align 8, !tbaa !9
  %97 = getelementptr inbounds nuw i8, ptr %96, i32 1
  store ptr %97, ptr %14, align 8, !tbaa !9
  store i8 0, ptr %96, align 1, !tbaa !42
  %98 = load i32, ptr %18, align 4, !tbaa !11
  %99 = trunc i32 %98 to i8
  %100 = load ptr, ptr %14, align 8, !tbaa !9
  %101 = getelementptr inbounds nuw i8, ptr %100, i32 1
  store ptr %101, ptr %14, align 8, !tbaa !9
  store i8 %99, ptr %100, align 1, !tbaa !42
  br label %143

102:                                              ; preds = %85
  %103 = load i32, ptr %18, align 4, !tbaa !11
  %104 = icmp sgt i32 %103, 2
  br i1 %104, label %105, label %124

105:                                              ; preds = %102
  %106 = load i32, ptr %18, align 4, !tbaa !11
  %107 = icmp sgt i32 %106, 127
  br i1 %107, label %108, label %109

108:                                              ; preds = %105
  br label %111

109:                                              ; preds = %105
  %110 = load i32, ptr %18, align 4, !tbaa !11
  br label %111

111:                                              ; preds = %109, %108
  %112 = phi i32 [ 127, %108 ], [ %110, %109 ]
  store i32 %112, ptr %18, align 4, !tbaa !11
  %113 = load ptr, ptr %14, align 8, !tbaa !9
  %114 = getelementptr inbounds nuw i8, ptr %113, i32 1
  store ptr %114, ptr %14, align 8, !tbaa !9
  store i8 0, ptr %113, align 1, !tbaa !42
  %115 = load i32, ptr %18, align 4, !tbaa !11
  %116 = add nsw i32 128, %115
  %117 = trunc i32 %116 to i8
  %118 = load ptr, ptr %14, align 8, !tbaa !9
  %119 = getelementptr inbounds nuw i8, ptr %118, i32 1
  store ptr %119, ptr %14, align 8, !tbaa !9
  store i8 %117, ptr %118, align 1, !tbaa !42
  %120 = load i32, ptr %20, align 4, !tbaa !11
  %121 = trunc i32 %120 to i8
  %122 = load ptr, ptr %14, align 8, !tbaa !9
  %123 = getelementptr inbounds nuw i8, ptr %122, i32 1
  store ptr %123, ptr %14, align 8, !tbaa !9
  store i8 %121, ptr %122, align 1, !tbaa !42
  br label %142

124:                                              ; preds = %102
  %125 = load i32, ptr %18, align 4, !tbaa !11
  %126 = icmp eq i32 %125, 2
  br i1 %126, label %127, label %136

127:                                              ; preds = %124
  %128 = load i32, ptr %20, align 4, !tbaa !11
  %129 = trunc i32 %128 to i8
  %130 = load ptr, ptr %14, align 8, !tbaa !9
  %131 = getelementptr inbounds nuw i8, ptr %130, i32 1
  store ptr %131, ptr %14, align 8, !tbaa !9
  store i8 %129, ptr %130, align 1, !tbaa !42
  %132 = load i32, ptr %20, align 4, !tbaa !11
  %133 = trunc i32 %132 to i8
  %134 = load ptr, ptr %14, align 8, !tbaa !9
  %135 = getelementptr inbounds nuw i8, ptr %134, i32 1
  store ptr %135, ptr %14, align 8, !tbaa !9
  store i8 %133, ptr %134, align 1, !tbaa !42
  br label %141

136:                                              ; preds = %124
  %137 = load i32, ptr %20, align 4, !tbaa !11
  %138 = trunc i32 %137 to i8
  %139 = load ptr, ptr %14, align 8, !tbaa !9
  %140 = getelementptr inbounds nuw i8, ptr %139, i32 1
  store ptr %140, ptr %14, align 8, !tbaa !9
  store i8 %138, ptr %139, align 1, !tbaa !42
  store i32 1, ptr %18, align 4, !tbaa !11
  br label %141

141:                                              ; preds = %136, %127
  br label %142

142:                                              ; preds = %141, %111
  br label %143

143:                                              ; preds = %142, %94
  br label %144

144:                                              ; preds = %143, %80
  %145 = load i32, ptr %18, align 4, !tbaa !11
  %146 = load i32, ptr %16, align 4, !tbaa !11
  %147 = add nsw i32 %146, %145
  store i32 %147, ptr %16, align 4, !tbaa !11
  br label %40, !llvm.loop !69

148:                                              ; preds = %40
  %149 = load ptr, ptr %14, align 8, !tbaa !9
  %150 = getelementptr inbounds nuw i8, ptr %149, i32 1
  store ptr %150, ptr %14, align 8, !tbaa !9
  store i8 0, ptr %149, align 1, !tbaa !42
  %151 = load ptr, ptr %14, align 8, !tbaa !9
  %152 = getelementptr inbounds nuw i8, ptr %151, i32 1
  store ptr %152, ptr %14, align 8, !tbaa !9
  store i8 -16, ptr %151, align 1, !tbaa !42
  %153 = load i32, ptr %11, align 4, !tbaa !11
  %154 = load ptr, ptr %10, align 8, !tbaa !9
  %155 = sext i32 %153 to i64
  %156 = getelementptr inbounds i8, ptr %154, i64 %155
  store ptr %156, ptr %10, align 8, !tbaa !9
  %157 = load ptr, ptr %14, align 8, !tbaa !9
  %158 = load ptr, ptr %15, align 8, !tbaa !9
  %159 = ptrtoint ptr %157 to i64
  %160 = ptrtoint ptr %158 to i64
  %161 = sub i64 %159, %160
  %162 = load i32, ptr %9, align 4, !tbaa !11
  %163 = sext i32 %162 to i64
  %164 = sub nsw i64 %163, %161
  %165 = trunc i64 %164 to i32
  store i32 %165, ptr %9, align 4, !tbaa !11
  br label %166

166:                                              ; preds = %148
  %167 = load i32, ptr %17, align 4, !tbaa !11
  %168 = add nsw i32 %167, 1
  store i32 %168, ptr %17, align 4, !tbaa !11
  br label %24, !llvm.loop !70

169:                                              ; preds = %24
  %170 = load ptr, ptr %14, align 8, !tbaa !9
  %171 = load ptr, ptr %8, align 8, !tbaa !60
  %172 = load ptr, ptr %171, align 8, !tbaa !9
  %173 = ptrtoint ptr %170 to i64
  %174 = ptrtoint ptr %172 to i64
  %175 = sub i64 %173, %174
  %176 = trunc i64 %175 to i32
  store i32 %176, ptr %18, align 4, !tbaa !11
  %177 = load ptr, ptr %14, align 8, !tbaa !9
  %178 = load ptr, ptr %8, align 8, !tbaa !60
  store ptr %177, ptr %178, align 8, !tbaa !9
  %179 = load i32, ptr %18, align 4, !tbaa !11
  store i32 %179, ptr %7, align 4
  store i32 1, ptr %21, align 4
  br label %180

180:                                              ; preds = %169, %35
  call void @llvm.lifetime.end.p0(i64 4, ptr %20) #4
  call void @llvm.lifetime.end.p0(i64 4, ptr %19) #4
  call void @llvm.lifetime.end.p0(i64 4, ptr %18) #4
  call void @llvm.lifetime.end.p0(i64 4, ptr %17) #4
  call void @llvm.lifetime.end.p0(i64 4, ptr %16) #4
  call void @llvm.lifetime.end.p0(i64 8, ptr %15) #4
  call void @llvm.lifetime.end.p0(i64 8, ptr %14) #4
  %181 = load i32, ptr %7, align 4
  ret i32 %181
}