; Function Attrs: nofree norecurse nosync nounwind memory(write, argmem: readwrite, inaccessiblemem: none) uwtable
define internal i32 @dvb_encode_rle8(ptr noundef captures(none) %0, i32 noundef %1, ptr noundef readonly captures(none) %2, i32 noundef %3, i32 noundef %4, i32 noundef %5) unnamed_addr #2 {
  %7 = load ptr, ptr %0, align 8, !tbaa !37
  %8 = icmp sgt i32 %5, 0
  br i1 %8, label %.lr.ph80, label %._crit_edge81

.lr.ph80:                                         ; preds = %6
  %9 = mul nsw i32 %4, 12
  %10 = add nsw i32 %9, 24
  %11 = icmp sgt i32 %4, 0
  %12 = sext i32 %3 to i64
  br i1 %11, label %.lr.ph80.split.us.preheader, label %.lr.ph80.split

.lr.ph80.split.us.preheader:                      ; preds = %.lr.ph80
  %13 = zext nneg i32 %4 to i64
  br label %.lr.ph80.split.us

.lr.ph80.split.us:                                ; preds = %.lr.ph80.split.us.preheader, %._crit_edge.us
  %.06378.us = phi i32 [ %63, %._crit_edge.us ], [ 0, %.lr.ph80.split.us.preheader ]
  %.06577.us = phi i32 [ %62, %._crit_edge.us ], [ %1, %.lr.ph80.split.us.preheader ]
  %.06676.us = phi ptr [ %57, %._crit_edge.us ], [ %7, %.lr.ph80.split.us.preheader ]
  %.06775.us = phi ptr [ %58, %._crit_edge.us ], [ %2, %.lr.ph80.split.us.preheader ]
  %14 = shl nsw i32 %.06577.us, 3
  %15 = icmp slt i32 %14, %10
  br i1 %15, label %.loopexit, label %.lr.ph.us

.lr.ph.us:                                        ; preds = %.lr.ph80.split.us
  %16 = getelementptr inbounds nuw i8, ptr %.06676.us, i64 1
  store i8 18, ptr %.06676.us, align 1, !tbaa !34
  br label %17

17:                                               ; preds = %.lr.ph.us, %53
  %.06474.us = phi i32 [ 0, %.lr.ph.us ], [ %54, %53 ]
  %.173.us = phi ptr [ %16, %.lr.ph.us ], [ %.2.us, %53 ]
  %18 = sext i32 %.06474.us to i64
  %19 = getelementptr inbounds i8, ptr %.06775.us, i64 %18
  %20 = load i8, ptr %19, align 1, !tbaa !34
  %21 = add nsw i32 %.06474.us, 1
  %smax = tail call i32 @llvm.smax.i32(i32 %4, i32 %21)
  br label %22

22:                                               ; preds = %24, %17
  %indvars.iv = phi i64 [ %indvars.iv.next, %24 ], [ %18, %17 ]
  %indvars.iv.next = add nsw i64 %indvars.iv, 1
  %23 = icmp slt i64 %indvars.iv.next, %13
  br i1 %23, label %24, label %.critedge.us

24:                                               ; preds = %22
  %25 = getelementptr inbounds i8, ptr %.06775.us, i64 %indvars.iv.next
  %26 = load i8, ptr %25, align 1, !tbaa !34
  %27 = icmp eq i8 %26, %20
  br i1 %27, label %22, label %.critedge.us.split.loop.exit, !llvm.loop !60

.critedge.us.split.loop.exit:                     ; preds = %24
  %28 = trunc nsw i64 %indvars.iv.next to i32
  br label %.critedge.us

.critedge.us:                                     ; preds = %22, %.critedge.us.split.loop.exit
  %.061.us.lcssa = phi i32 [ %28, %.critedge.us.split.loop.exit ], [ %smax, %22 ]
  %29 = sub nsw i32 %.061.us.lcssa, %.06474.us
  %30 = icmp eq i32 %29, 1
  %31 = icmp ne i8 %20, 0
  %or.cond.us = select i1 %30, i1 %31, i1 false
  br i1 %or.cond.us, label %51, label %32

32:                                               ; preds = %.critedge.us
  %33 = icmp eq i8 %20, 0
  %34 = getelementptr inbounds nuw i8, ptr %.173.us, i64 1
  br i1 %33, label %47, label %35

35:                                               ; preds = %32
  %36 = icmp sgt i32 %29, 2
  br i1 %36, label %41, label %37

37:                                               ; preds = %35
  %38 = icmp eq i32 %29, 2
  store i8 %20, ptr %.173.us, align 1, !tbaa !34
  br i1 %38, label %39, label %53

39:                                               ; preds = %37
  %40 = getelementptr inbounds nuw i8, ptr %.173.us, i64 2
  store i8 %20, ptr %34, align 1, !tbaa !34
  br label %53

41:                                               ; preds = %35
  %42 = tail call i32 @llvm.umin.i32(i32 %29, i32 127)
  store i8 0, ptr %.173.us, align 1, !tbaa !34
  %43 = trunc nuw nsw i32 %42 to i8
  %44 = or disjoint i8 %43, -128
  %45 = getelementptr inbounds nuw i8, ptr %.173.us, i64 2
  store i8 %44, ptr %34, align 1, !tbaa !34
  %46 = getelementptr inbounds nuw i8, ptr %.173.us, i64 3
  store i8 %20, ptr %45, align 1, !tbaa !34
  br label %53

47:                                               ; preds = %32
  %48 = tail call i32 @llvm.smin.i32(i32 %29, i32 127)
  store i8 0, ptr %.173.us, align 1, !tbaa !34
  %49 = trunc i32 %48 to i8
  %50 = getelementptr inbounds nuw i8, ptr %.173.us, i64 2
  store i8 %49, ptr %34, align 1, !tbaa !34
  br label %53

51:                                               ; preds = %.critedge.us
  %52 = getelementptr inbounds nuw i8, ptr %.173.us, i64 1
  store i8 %20, ptr %.173.us, align 1, !tbaa !34
  br label %53

53:                                               ; preds = %37, %51, %47, %41, %39
  %.2.us = phi ptr [ %52, %51 ], [ %50, %47 ], [ %46, %41 ], [ %40, %39 ], [ %34, %37 ]
  %.062.us = phi i32 [ 1, %51 ], [ %48, %47 ], [ %42, %41 ], [ 2, %39 ], [ 1, %37 ]
  %54 = add nsw i32 %.062.us, %.06474.us
  %55 = icmp slt i32 %54, %4
  br i1 %55, label %17, label %._crit_edge.us, !llvm.loop !61

._crit_edge.us:                                   ; preds = %53
  %56 = getelementptr inbounds nuw i8, ptr %.2.us, i64 1
  store i8 0, ptr %.2.us, align 1, !tbaa !34
  %57 = getelementptr inbounds nuw i8, ptr %.2.us, i64 2
  store i8 -16, ptr %56, align 1, !tbaa !34
  %58 = getelementptr inbounds i8, ptr %.06775.us, i64 %12
  %59 = ptrtoint ptr %57 to i64
  %60 = ptrtoint ptr %.06676.us to i64
  %.neg.us = sub i64 %60, %59
  %61 = trunc i64 %.neg.us to i32
  %62 = add i32 %.06577.us, %61
  %63 = add nuw nsw i32 %.06378.us, 1
  %exitcond87.not = icmp eq i32 %63, %5
  br i1 %exitcond87.not, label %._crit_edge81, label %.lr.ph80.split.us, !llvm.loop !62

.lr.ph80.split:                                   ; preds = %.lr.ph80, %66
  %.06378 = phi i32 [ %71, %66 ], [ 0, %.lr.ph80 ]
  %.06577 = phi i32 [ %70, %66 ], [ %1, %.lr.ph80 ]
  %.06676 = phi ptr [ %69, %66 ], [ %7, %.lr.ph80 ]
  %64 = shl nsw i32 %.06577, 3
  %65 = icmp slt i32 %64, %10
  br i1 %65, label %.loopexit, label %66

66:                                               ; preds = %.lr.ph80.split
  %67 = getelementptr inbounds nuw i8, ptr %.06676, i64 1
  store i8 18, ptr %.06676, align 1, !tbaa !34
  %68 = getelementptr inbounds nuw i8, ptr %.06676, i64 2
  store i8 0, ptr %67, align 1, !tbaa !34
  %69 = getelementptr inbounds nuw i8, ptr %.06676, i64 3
  store i8 -16, ptr %68, align 1, !tbaa !34
  %70 = add i32 %.06577, -3
  %71 = add nuw nsw i32 %.06378, 1
  %exitcond.not = icmp eq i32 %71, %5
  br i1 %exitcond.not, label %._crit_edge81, label %.lr.ph80.split, !llvm.loop !62

._crit_edge81:                                    ; preds = %66, %._crit_edge.us, %6
  %.066.lcssa = phi ptr [ %7, %6 ], [ %57, %._crit_edge.us ], [ %69, %66 ]
  %72 = load ptr, ptr %0, align 8, !tbaa !37
  %73 = ptrtoint ptr %.066.lcssa to i64
  %74 = ptrtoint ptr %72 to i64
  %75 = sub i64 %73, %74
  %76 = trunc i64 %75 to i32
  store ptr %.066.lcssa, ptr %0, align 8, !tbaa !37
  br label %.loopexit

.loopexit:                                        ; preds = %.lr.ph80.split, %.lr.ph80.split.us, %._crit_edge81
  %.0 = phi i32 [ %76, %._crit_edge81 ], [ -1397118274, %.lr.ph80.split.us ], [ -1397118274, %.lr.ph80.split ]
  ret i32 %.0
}